	.file	"const_ref.cpp"
	.text
	.globl	main
	.type	main, @function
main:
.LFB1:
	.cfi_startproc
	pushq	%rbp
	.cfi_def_cfa_offset 16
	.cfi_offset 6, -16
	movq	%rsp, %rbp
	.cfi_def_cfa_register 6
	subq	$16, %rsp
	movl	$1, -4(%rbp)
	movl	$1, -8(%rbp)
	leaq	-12(%rbp), %rdx
	leaq	-8(%rbp), %rax
	movq	%rdx, %rsi
	movq	%rax, %rdi
	call	_Z4funcIiEvRKT_PS0_
	movl	$0, %eax
	leave
	.cfi_def_cfa 7, 8
	ret
	.cfi_endproc
.LFE1:
	.size	main, .-main
	.section	.text._Z4funcIiEvRKT_PS0_,"axG",@progbits,_Z4funcIiEvRKT_PS0_,comdat
	.weak	_Z4funcIiEvRKT_PS0_
	.type	_Z4funcIiEvRKT_PS0_, @function
_Z4funcIiEvRKT_PS0_:
.LFB2:
	.cfi_startproc
	pushq	%rbp
	.cfi_def_cfa_offset 16
	.cfi_offset 6, -16
	movq	%rsp, %rbp
	.cfi_def_cfa_register 6
	movq	%rdi, -8(%rbp)
	movq	%rsi, -16(%rbp)
	movq	-16(%rbp), %rax
	movl	(%rax), %edx
	movq	-8(%rbp), %rax
	movl	(%rax), %eax
	addl	%edx, %eax
	movzwl	%ax, %edx
	movq	-16(%rbp), %rax
	movl	%edx, (%rax)
	popq	%rbp
	.cfi_def_cfa 7, 8
	ret
	.cfi_endproc
.LFE2:
	.size	_Z4funcIiEvRKT_PS0_, .-_Z4funcIiEvRKT_PS0_
	.ident	"GCC: (Ubuntu/Linaro 4.8.1-10ubuntu9) 4.8.1"
	.section	.note.GNU-stack,"",@progbits
