	.file	"sfinae.cpp"
	.text
	.globl	main
	.type	main, @function
main:
.LFB4:
	.cfi_startproc
	pushq	%rbp
	.cfi_def_cfa_offset 16
	.cfi_offset 6, -16
	movq	%rsp, %rbp
	.cfi_def_cfa_register 6
	subq	$16, %rsp
	movl	$1, -4(%rbp)
	leaq	-8(%rbp), %rax
	movq	%rax, %rsi
	movl	$1, %edi
	call	_Z4funcIivEvT_PS0_
	movl	$0, %eax
	leave
	.cfi_def_cfa 7, 8
	ret
	.cfi_endproc
.LFE4:
	.size	main, .-main
	.section	.text._Z4funcIivEvT_PS0_,"axG",@progbits,_Z4funcIivEvT_PS0_,comdat
	.weak	_Z4funcIivEvT_PS0_
	.type	_Z4funcIivEvT_PS0_, @function
_Z4funcIivEvT_PS0_:
.LFB5:
	.cfi_startproc
	pushq	%rbp
	.cfi_def_cfa_offset 16
	.cfi_offset 6, -16
	movq	%rsp, %rbp
	.cfi_def_cfa_register 6
	movl	%edi, -4(%rbp)
	movq	%rsi, -16(%rbp)
	movq	-16(%rbp), %rax
	movl	(%rax), %edx
	movl	-4(%rbp), %eax
	addl	%edx, %eax
	movzwl	%ax, %edx
	movq	-16(%rbp), %rax
	movl	%edx, (%rax)
	popq	%rbp
	.cfi_def_cfa 7, 8
	ret
	.cfi_endproc
.LFE5:
	.size	_Z4funcIivEvT_PS0_, .-_Z4funcIivEvT_PS0_
	.ident	"GCC: (Ubuntu/Linaro 4.8.1-10ubuntu9) 4.8.1"
	.section	.note.GNU-stack,"",@progbits
